target datalayout = "e-m:e-p270:32:32-p271:32:32-p272:64:64-i64:64-i128:128-f80:128-n8:16:32:64-S128"
target triple = "x86_64-pc-linux-gnu"

%struct.LogicalTapeSet = type { ptr, ptr, i32, i64, i64, i64, i8, ptr, i64, i64, i8 }
%struct.LogicalTape = type { ptr, i8, i8, i8, i64, i64, i64, i64, ptr, i32, i32, i32, i32, ptr, i32, i32 }
%struct.TapeBlockTrailer = type { i64, i64 }

@.str.1 = private unnamed_addr constant [10 x i8] c"logtape.c\00", align 1
@.str.6 = private unnamed_addr constant [47 x i8] c"could not seek to block %lld of temporary file\00", align 1
@__func__.ltsReadBlock = private unnamed_addr constant [13 x i8] c"ltsReadBlock\00", align 1

; Function Attrs: inlinehint nounwind uwtable
define internal i64 @parent_offset(i64 noundef %0) #5 {
  %2 = alloca i64, align 8
  store i64 %0, ptr %2, align 8
  %3 = load i64, ptr %2, align 8
  %4 = sub i64 %3, 1
  %5 = udiv i64 %4, 2
  ret i64 %5
}

; Function Attrs: nounwind uwtable
define internal void @ltsReleaseBlock(ptr noundef %0, i64 noundef %1) #0 {
  %3 = alloca ptr, align 8
  %4 = alloca i64, align 8
  %5 = alloca ptr, align 8
  %6 = alloca i64, align 8
  %7 = alloca i32, align 4
  %8 = alloca i64, align 8
  store ptr %0, ptr %3, align 8
  store i64 %1, ptr %4, align 8
  call void @llvm.lifetime.start.p0(i64 8, ptr %5) #7
  call void @llvm.lifetime.start.p0(i64 8, ptr %6) #7
  %9 = load ptr, ptr %3, align 8
  %10 = getelementptr inbounds nuw %struct.LogicalTapeSet, ptr %9, i32 0, i32 6
  %11 = load i8, ptr %10, align 8, !range !4, !noundef !5
  %12 = trunc i8 %11 to i1
  br i1 %12, label %13, label %14

13:                                               ; preds = %2
  store i32 1, ptr %7, align 4
  br label %86

14:                                               ; preds = %2
  %15 = load ptr, ptr %3, align 8
  %16 = getelementptr inbounds nuw %struct.LogicalTapeSet, ptr %15, i32 0, i32 8
  %17 = load i64, ptr %16, align 8
  %18 = load ptr, ptr %3, align 8
  %19 = getelementptr inbounds nuw %struct.LogicalTapeSet, ptr %18, i32 0, i32 9
  %20 = load i64, ptr %19, align 8
  %21 = icmp uge i64 %17, %20
  br i1 %21, label %22, label %45

22:                                               ; preds = %14
  %23 = load ptr, ptr %3, align 8
  %24 = getelementptr inbounds nuw %struct.LogicalTapeSet, ptr %23, i32 0, i32 9
  %25 = load i64, ptr %24, align 8
  %26 = mul i64 %25, 2
  %27 = mul i64 %26, 8
  %28 = icmp ugt i64 %27, 1073741823
  br i1 %28, label %29, label %30

29:                                               ; preds = %22
  store i32 1, ptr %7, align 4
  br label %86

30:                                               ; preds = %22
  %31 = load ptr, ptr %3, align 8
  %32 = getelementptr inbounds nuw %struct.LogicalTapeSet, ptr %31, i32 0, i32 9
  %33 = load i64, ptr %32, align 8
  %34 = mul i64 %33, 2
  store i64 %34, ptr %32, align 8
  %35 = load ptr, ptr %3, align 8
  %36 = getelementptr inbounds nuw %struct.LogicalTapeSet, ptr %35, i32 0, i32 7
  %37 = load ptr, ptr %36, align 8
  %38 = load ptr, ptr %3, align 8
  %39 = getelementptr inbounds nuw %struct.LogicalTapeSet, ptr %38, i32 0, i32 9
  %40 = load i64, ptr %39, align 8
  %41 = mul i64 %40, 8
  %42 = call ptr @repalloc(ptr noundef %37, i64 noundef %41)
  %43 = load ptr, ptr %3, align 8
  %44 = getelementptr inbounds nuw %struct.LogicalTapeSet, ptr %43, i32 0, i32 7
  store ptr %42, ptr %44, align 8
  br label %45

45:                                               ; preds = %30, %14
  %46 = load ptr, ptr %3, align 8
  %47 = getelementptr inbounds nuw %struct.LogicalTapeSet, ptr %46, i32 0, i32 7
  %48 = load ptr, ptr %47, align 8
  store ptr %48, ptr %5, align 8
  %49 = load ptr, ptr %3, align 8
  %50 = getelementptr inbounds nuw %struct.LogicalTapeSet, ptr %49, i32 0, i32 8
  %51 = load i64, ptr %50, align 8
  store i64 %51, ptr %6, align 8
  %52 = load ptr, ptr %3, align 8
  %53 = getelementptr inbounds nuw %struct.LogicalTapeSet, ptr %52, i32 0, i32 8
  %54 = load i64, ptr %53, align 8
  %55 = add i64 %54, 1
  store i64 %55, ptr %53, align 8
  br label %56

56:                                               ; preds = %80, %45
  %57 = load i64, ptr %6, align 8
  %58 = icmp ne i64 %57, 0
  br i1 %58, label %59, label %81

59:                                               ; preds = %56
  call void @llvm.lifetime.start.p0(i64 8, ptr %8) #7
  %60 = load i64, ptr %6, align 8
  %61 = call i64 @parent_offset(i64 noundef %60)
  store i64 %61, ptr %8, align 8
  %62 = load ptr, ptr %5, align 8
  %63 = load i64, ptr %8, align 8
  %64 = getelementptr inbounds nuw i64, ptr %62, i64 %63
  %65 = load i64, ptr %64, align 8
  %66 = load i64, ptr %4, align 8
  %67 = icmp slt i64 %65, %66
  br i1 %67, label %68, label %69

68:                                               ; preds = %59
  store i32 3, ptr %7, align 4
  br label %78

69:                                               ; preds = %59
  %70 = load ptr, ptr %5, align 8
  %71 = load i64, ptr %8, align 8
  %72 = getelementptr inbounds nuw i64, ptr %70, i64 %71
  %73 = load i64, ptr %72, align 8
  %74 = load ptr, ptr %5, align 8
  %75 = load i64, ptr %6, align 8
  %76 = getelementptr inbounds nuw i64, ptr %74, i64 %75
  store i64 %73, ptr %76, align 8
  %77 = load i64, ptr %8, align 8
  store i64 %77, ptr %6, align 8
  store i32 0, ptr %7, align 4
  br label %78

78:                                               ; preds = %69, %68
  call void @llvm.lifetime.end.p0(i64 8, ptr %8) #7
  %79 = load i32, ptr %7, align 4
  switch i32 %79, label %89 [
    i32 0, label %80
    i32 3, label %81
  ]

80:                                               ; preds = %78
  br label %56, !llvm.loop !11

81:                                               ; preds = %78, %56
  %82 = load i64, ptr %4, align 8
  %83 = load ptr, ptr %5, align 8
  %84 = load i64, ptr %6, align 8
  %85 = getelementptr inbounds nuw i64, ptr %83, i64 %84
  store i64 %82, ptr %85, align 8
  store i32 0, ptr %7, align 4
  br label %86

86:                                               ; preds = %81, %29, %13
  call void @llvm.lifetime.end.p0(i64 8, ptr %6) #7
  call void @llvm.lifetime.end.p0(i64 8, ptr %5) #7
  %87 = load i32, ptr %7, align 4
  switch i32 %87, label %89 [
    i32 0, label %88
    i32 1, label %88
  ]

88:                                               ; preds = %86, %86
  ret void

89:                                               ; preds = %86, %78
  unreachable
}

; Function Attrs: nounwind uwtable
define internal void @ltsReadBlock(ptr noundef %0, i64 noundef %1, ptr noundef %2) #0 {
  %4 = alloca ptr, align 8
  %5 = alloca i64, align 8
  %6 = alloca ptr, align 8
  store ptr %0, ptr %4, align 8
  store i64 %1, ptr %5, align 8
  store ptr %2, ptr %6, align 8
  %7 = load ptr, ptr %4, align 8
  %8 = getelementptr inbounds nuw %struct.LogicalTapeSet, ptr %7, i32 0, i32 0
  %9 = load ptr, ptr %8, align 8
  %10 = load i64, ptr %5, align 8
  %11 = call i32 @BufFileSeekBlock(ptr noundef %9, i64 noundef %10)
  %12 = icmp ne i32 %11, 0
  br i1 %12, label %13, label %25

13:                                               ; preds = %3
  br label %14

14:                                               ; preds = %13
  br i1 true, label %15, label %17

15:                                               ; preds = %14
  %16 = call zeroext i1 @errstart_cold(i32 noundef 21, ptr noundef null) #8
  br i1 %16, label %19, label %23

17:                                               ; preds = %14
  %18 = call zeroext i1 @errstart(i32 noundef 21, ptr noundef null)
  br i1 %18, label %19, label %23

19:                                               ; preds = %17, %15
  %20 = call i32 @errcode_for_file_access()
  %21 = load i64, ptr %5, align 8
  %22 = call i32 (ptr, ...) @errmsg(ptr noundef @.str.6, i64 noundef %21)
  call void @errfinish(ptr noundef @.str.1, i32 noundef 288, ptr noundef @__func__.ltsReadBlock)
  br label %23

23:                                               ; preds = %19, %17, %15
  unreachable

24:                                               ; No predecessors!
  br label %25

25:                                               ; preds = %24, %3
  %26 = load ptr, ptr %4, align 8
  %27 = getelementptr inbounds nuw %struct.LogicalTapeSet, ptr %26, i32 0, i32 0
  %28 = load ptr, ptr %27, align 8
  %29 = load ptr, ptr %6, align 8
  call void @BufFileReadExact(ptr noundef %28, ptr noundef %29, i64 noundef 8192)
  ret void
}

; Function Attrs: nounwind uwtable
define internal zeroext i1 @ltsReadFillBuffer(ptr noundef %0) #0 {
  %2 = alloca ptr, align 8
  %3 = alloca ptr, align 8
  %4 = alloca i64, align 8
  %5 = alloca i32, align 4
  store ptr %0, ptr %2, align 8
  %6 = load ptr, ptr %2, align 8
  %7 = getelementptr inbounds nuw %struct.LogicalTape, ptr %6, i32 0, i32 11
  store i32 0, ptr %7, align 8
  %8 = load ptr, ptr %2, align 8
  %9 = getelementptr inbounds nuw %struct.LogicalTape, ptr %8, i32 0, i32 12
  store i32 0, ptr %9, align 4
  br label %10

10:                                               ; preds = %90, %1
  call void @llvm.lifetime.start.p0(i64 8, ptr %3) #7
  %11 = load ptr, ptr %2, align 8
  %12 = getelementptr inbounds nuw %struct.LogicalTape, ptr %11, i32 0, i32 8
  %13 = load ptr, ptr %12, align 8
  %14 = load ptr, ptr %2, align 8
  %15 = getelementptr inbounds nuw %struct.LogicalTape, ptr %14, i32 0, i32 12
  %16 = load i32, ptr %15, align 4
  %17 = sext i32 %16 to i64
  %18 = getelementptr inbounds i8, ptr %13, i64 %17
  store ptr %18, ptr %3, align 8
  call void @llvm.lifetime.start.p0(i64 8, ptr %4) #7
  %19 = load ptr, ptr %2, align 8
  %20 = getelementptr inbounds nuw %struct.LogicalTape, ptr %19, i32 0, i32 6
  %21 = load i64, ptr %20, align 8
  store i64 %21, ptr %4, align 8
  %22 = load i64, ptr %4, align 8
  %23 = icmp eq i64 %22, -1
  br i1 %23, label %24, label %25

24:                                               ; preds = %10
  store i32 2, ptr %5, align 4
  br label %87

25:                                               ; preds = %10
  %26 = load ptr, ptr %2, align 8
  %27 = getelementptr inbounds nuw %struct.LogicalTape, ptr %26, i32 0, i32 7
  %28 = load i64, ptr %27, align 8
  %29 = load i64, ptr %4, align 8
  %30 = add i64 %29, %28
  store i64 %30, ptr %4, align 8
  %31 = load ptr, ptr %2, align 8
  %32 = getelementptr inbounds nuw %struct.LogicalTape, ptr %31, i32 0, i32 0
  %33 = load ptr, ptr %32, align 8
  %34 = load i64, ptr %4, align 8
  %35 = load ptr, ptr %3, align 8
  call void @ltsReadBlock(ptr noundef %33, i64 noundef %34, ptr noundef %35)
  %36 = load ptr, ptr %2, align 8
  %37 = getelementptr inbounds nuw %struct.LogicalTape, ptr %36, i32 0, i32 2
  %38 = load i8, ptr %37, align 1, !range !4, !noundef !5
  %39 = trunc i8 %38 to i1
  br i1 %39, label %45, label %40

40:                                               ; preds = %25
  %41 = load ptr, ptr %2, align 8
  %42 = getelementptr inbounds nuw %struct.LogicalTape, ptr %41, i32 0, i32 0
  %43 = load ptr, ptr %42, align 8
  %44 = load i64, ptr %4, align 8
  call void @ltsReleaseBlock(ptr noundef %43, i64 noundef %44)
  br label %45

45:                                               ; preds = %40, %25
  %46 = load ptr, ptr %2, align 8
  %47 = getelementptr inbounds nuw %struct.LogicalTape, ptr %46, i32 0, i32 6
  %48 = load i64, ptr %47, align 8
  %49 = load ptr, ptr %2, align 8
  %50 = getelementptr inbounds nuw %struct.LogicalTape, ptr %49, i32 0, i32 5
  store i64 %48, ptr %50, align 8
  %51 = load ptr, ptr %3, align 8
  %52 = getelementptr inbounds nuw i8, ptr %51, i64 8176
  %53 = getelementptr inbounds nuw %struct.TapeBlockTrailer, ptr %52, i32 0, i32 1
  %54 = load i64, ptr %53, align 8
  %55 = icmp slt i64 %54, 0
  br i1 %55, label %56, label %62

56:                                               ; preds = %45
  %57 = load ptr, ptr %3, align 8
  %58 = getelementptr inbounds nuw i8, ptr %57, i64 8176
  %59 = getelementptr inbounds nuw %struct.TapeBlockTrailer, ptr %58, i32 0, i32 1
  %60 = load i64, ptr %59, align 8
  %61 = sub i64 0, %60
  br label %63

62:                                               ; preds = %45
  br label %63

63:                                               ; preds = %62, %56
  %64 = phi i64 [ %61, %56 ], [ 8176, %62 ]
  %65 = load ptr, ptr %2, align 8
  %66 = getelementptr inbounds nuw %struct.LogicalTape, ptr %65, i32 0, i32 12
  %67 = load i32, ptr %66, align 4
  %68 = sext i32 %67 to i64
  %69 = add i64 %68, %64
  %70 = trunc i64 %69 to i32
  store i32 %70, ptr %66, align 4
  %71 = load ptr, ptr %3, align 8
  %72 = getelementptr inbounds nuw i8, ptr %71, i64 8176
  %73 = getelementptr inbounds nuw %struct.TapeBlockTrailer, ptr %72, i32 0, i32 1
  %74 = load i64, ptr %73, align 8
  %75 = icmp slt i64 %74, 0
  br i1 %75, label %76, label %79

76:                                               ; preds = %63
  %77 = load ptr, ptr %2, align 8
  %78 = getelementptr inbounds nuw %struct.LogicalTape, ptr %77, i32 0, i32 6
  store i64 -1, ptr %78, align 8
  store i32 2, ptr %5, align 4
  br label %87

79:                                               ; preds = %63
  %80 = load ptr, ptr %3, align 8
  %81 = getelementptr inbounds nuw i8, ptr %80, i64 8176
  %82 = getelementptr inbounds nuw %struct.TapeBlockTrailer, ptr %81, i32 0, i32 1
  %83 = load i64, ptr %82, align 8
  %84 = load ptr, ptr %2, align 8
  %85 = getelementptr inbounds nuw %struct.LogicalTape, ptr %84, i32 0, i32 6
  store i64 %83, ptr %85, align 8
  br label %86

86:                                               ; preds = %79
  store i32 0, ptr %5, align 4
  br label %87

87:                                               ; preds = %86, %76, %24
  call void @llvm.lifetime.end.p0(i64 8, ptr %4) #7
  call void @llvm.lifetime.end.p0(i64 8, ptr %3) #7
  %88 = load i32, ptr %5, align 4
  switch i32 %88, label %104 [
    i32 0, label %89
    i32 2, label %99
  ]

89:                                               ; preds = %87
  br label %90

90:                                               ; preds = %89
  %91 = load ptr, ptr %2, align 8
  %92 = getelementptr inbounds nuw %struct.LogicalTape, ptr %91, i32 0, i32 9
  %93 = load i32, ptr %92, align 8
  %94 = load ptr, ptr %2, align 8
  %95 = getelementptr inbounds nuw %struct.LogicalTape, ptr %94, i32 0, i32 12
  %96 = load i32, ptr %95, align 4
  %97 = sub i32 %93, %96
  %98 = icmp sgt i32 %97, 8192
  br i1 %98, label %10, label %99, !llvm.loop !13

99:                                               ; preds = %90, %87
  %100 = load ptr, ptr %2, align 8
  %101 = getelementptr inbounds nuw %struct.LogicalTape, ptr %100, i32 0, i32 12
  %102 = load i32, ptr %101, align 4
  %103 = icmp sgt i32 %102, 0
  ret i1 %103

104:                                              ; preds = %87
  unreachable
}