; Function Attrs: nounwind uwtable
define internal fastcc zeroext i1 @ltsReadFillBuffer(ptr noundef captures(none) initializes((64, 72)) %0) unnamed_addr #0 {
  %2 = getelementptr inbounds nuw i8, ptr %0, i64 64
  store i32 0, ptr %2, align 8
  %3 = getelementptr inbounds nuw i8, ptr %0, i64 68
  store i32 0, ptr %3, align 4
  %4 = getelementptr inbounds nuw i8, ptr %0, i64 48
  %5 = getelementptr inbounds nuw i8, ptr %0, i64 32
  %6 = getelementptr inbounds nuw i8, ptr %0, i64 40
  %7 = getelementptr inbounds nuw i8, ptr %0, i64 9
  %8 = getelementptr inbounds nuw i8, ptr %0, i64 24
  %9 = getelementptr inbounds nuw i8, ptr %0, i64 56
  %.pre = load i64, ptr %5, align 8
  br label %10

10:                                               ; preds = %72, %1
  %11 = phi i64 [ %69, %72 ], [ %.pre, %1 ]
  %12 = phi i32 [ %68, %72 ], [ 0, %1 ]
  %13 = load ptr, ptr %4, align 8
  %14 = sext i32 %12 to i64
  %15 = getelementptr inbounds i8, ptr %13, i64 %14
  %16 = icmp eq i64 %11, -1
  br i1 %16, label %.thread, label %17

17:                                               ; preds = %10
  %18 = load i64, ptr %6, align 8
  %19 = add i64 %18, %11
  %20 = load ptr, ptr %0, align 8
  %21 = load ptr, ptr %20, align 8
  %22 = tail call i32 @BufFileSeekBlock(ptr noundef %21, i64 noundef %19) #10
  %.not.i = icmp eq i32 %22, 0
  br i1 %.not.i, label %ltsReadBlock.exit, label %23

23:                                               ; preds = %17
  %24 = tail call zeroext i1 @errstart_cold(i32 noundef 21, ptr noundef null) #11
  tail call void @llvm.assume(i1 %24)
  %25 = tail call i32 @errcode_for_file_access() #10
  %26 = tail call i32 (ptr, ...) @errmsg(ptr noundef nonnull @.str.6, i64 noundef %19) #10
  tail call void @errfinish(ptr noundef nonnull @.str.1, i32 noundef 288, ptr noundef nonnull @__func__.ltsReadBlock) #10
  unreachable

ltsReadBlock.exit:                                ; preds = %17
  %27 = load ptr, ptr %20, align 8
  tail call void @BufFileReadExact(ptr noundef %27, ptr noundef %15, i64 noundef 8192) #10
  %28 = load i8, ptr %7, align 1, !range !4, !noundef !5
  %29 = trunc nuw i8 %28 to i1
  br i1 %29, label %ltsReleaseBlock.exit, label %30

30:                                               ; preds = %ltsReadBlock.exit
  %31 = load ptr, ptr %0, align 8
  %32 = getelementptr inbounds nuw i8, ptr %31, i64 48
  %33 = load i8, ptr %32, align 8, !range !4, !noundef !5
  %34 = trunc nuw i8 %33 to i1
  br i1 %34, label %ltsReleaseBlock.exit, label %35

35:                                               ; preds = %30
  %36 = getelementptr inbounds nuw i8, ptr %31, i64 64
  %37 = load i64, ptr %36, align 8
  %38 = getelementptr inbounds nuw i8, ptr %31, i64 72
  %39 = load i64, ptr %38, align 8
  %.not.i29 = icmp ult i64 %37, %39
  br i1 %.not.i29, label %._crit_edge.i, label %40

._crit_edge.i:                                    ; preds = %35
  %.phi.trans.insert.i = getelementptr inbounds nuw i8, ptr %31, i64 56
  %.pre.i = load ptr, ptr %.phi.trans.insert.i, align 8
  br label %48

40:                                               ; preds = %35
  %41 = shl i64 %39, 4
  %42 = icmp ugt i64 %41, 1073741823
  br i1 %42, label %ltsReleaseBlock.exit, label %43

43:                                               ; preds = %40
  %44 = shl i64 %39, 1
  store i64 %44, ptr %38, align 8
  %45 = getelementptr inbounds nuw i8, ptr %31, i64 56
  %46 = load ptr, ptr %45, align 8
  %47 = tail call ptr @repalloc(ptr noundef %46, i64 noundef %41) #10
  store ptr %47, ptr %45, align 8
  %.pre36.i = load i64, ptr %36, align 8
  br label %48

48:                                               ; preds = %43, %._crit_edge.i
  %49 = phi i64 [ %37, %._crit_edge.i ], [ %.pre36.i, %43 ]
  %50 = phi ptr [ %.pre.i, %._crit_edge.i ], [ %47, %43 ]
  %51 = add i64 %49, 1
  store i64 %51, ptr %36, align 8
  %.not2832.i = icmp eq i64 %49, 0
  br i1 %.not2832.i, label %.thread.i, label %.lr.ph.i

.lr.ph.i:                                         ; preds = %48, %57
  %.033.i = phi i64 [ %53, %57 ], [ %49, %48 ]
  %52 = add i64 %.033.i, -1
  %53 = lshr i64 %52, 1
  %54 = getelementptr inbounds nuw i64, ptr %50, i64 %53
  %55 = load i64, ptr %54, align 8
  %56 = icmp slt i64 %55, %19
  br i1 %56, label %.thread.i, label %57

57:                                               ; preds = %.lr.ph.i
  %58 = getelementptr inbounds nuw i64, ptr %50, i64 %.033.i
  store i64 %55, ptr %58, align 8
  %.not28.i = icmp ult i64 %52, 2
  br i1 %.not28.i, label %.thread.i, label %.lr.ph.i

.thread.i:                                        ; preds = %57, %.lr.ph.i, %48
  %.0.lcssa.i = phi i64 [ 0, %48 ], [ %53, %57 ], [ %.033.i, %.lr.ph.i ]
  %59 = getelementptr inbounds nuw i64, ptr %50, i64 %.0.lcssa.i
  store i64 %19, ptr %59, align 8
  br label %ltsReleaseBlock.exit

ltsReleaseBlock.exit:                             ; preds = %.thread.i, %40, %30, %ltsReadBlock.exit
  %60 = load i64, ptr %5, align 8
  store i64 %60, ptr %8, align 8
  %61 = getelementptr inbounds nuw i8, ptr %15, i64 8184
  %62 = load i64, ptr %61, align 8
  %63 = icmp slt i64 %62, 0
  %64 = trunc i64 %62 to i32
  %65 = sub i32 0, %64
  %66 = select i1 %63, i32 %65, i32 8176
  %67 = load i32, ptr %3, align 4
  %68 = add i32 %66, %67
  store i32 %68, ptr %3, align 4
  %69 = load i64, ptr %61, align 8
  %70 = icmp slt i64 %69, 0
  br i1 %70, label %71, label %72

71:                                               ; preds = %ltsReleaseBlock.exit
  store i64 -1, ptr %5, align 8
  br label %.thread

72:                                               ; preds = %ltsReleaseBlock.exit
  store i64 %69, ptr %5, align 8
  %73 = load i32, ptr %9, align 8
  %74 = sub i32 %73, %68
  %75 = icmp sgt i32 %74, 8192
  br i1 %75, label %10, label %.thread, !llvm.loop !13

.thread:                                          ; preds = %10, %72, %71
  %76 = phi i32 [ %68, %71 ], [ %12, %10 ], [ %68, %72 ]
  %77 = icmp sgt i32 %76, 0
  ret i1 %77
}